target datalayout = "e-m:e-p270:32:32-p271:32:32-p272:64:64-i64:64-i128:128-f80:128-n8:16:32:64-S128"
target triple = "x86_64-pc-linux-gnu"

%struct.sp_int = type { i16, i16, [129 x i64] }

; Function Attrs: nounwind uwtable
define internal i32 @_sp_cmp_abs(ptr noundef %0, ptr noundef %1) #0 {
  %3 = alloca ptr, align 8
  %4 = alloca ptr, align 8
  %5 = alloca i32, align 4
  %6 = alloca i32, align 4
  store ptr %0, ptr %3, align 8, !tbaa !3
  store ptr %1, ptr %4, align 8, !tbaa !3
  call void @llvm.lifetime.start.p0(i64 4, ptr %5) #8
  store i32 0, ptr %5, align 4, !tbaa !8
  %7 = load ptr, ptr %3, align 8, !tbaa !3
  %8 = getelementptr inbounds nuw %struct.sp_int, ptr %7, i32 0, i32 0
  %9 = load i16, ptr %8, align 8, !tbaa !15
  %10 = zext i16 %9 to i32
  %11 = load ptr, ptr %4, align 8, !tbaa !3
  %12 = getelementptr inbounds nuw %struct.sp_int, ptr %11, i32 0, i32 0
  %13 = load i16, ptr %12, align 8, !tbaa !15
  %14 = zext i16 %13 to i32
  %15 = icmp sgt i32 %10, %14
  br i1 %15, label %16, label %17

16:                                               ; preds = %2
  store i32 1, ptr %5, align 4, !tbaa !8
  br label %74

17:                                               ; preds = %2
  %18 = load ptr, ptr %3, align 8, !tbaa !3
  %19 = getelementptr inbounds nuw %struct.sp_int, ptr %18, i32 0, i32 0
  %20 = load i16, ptr %19, align 8, !tbaa !15
  %21 = zext i16 %20 to i32
  %22 = load ptr, ptr %4, align 8, !tbaa !3
  %23 = getelementptr inbounds nuw %struct.sp_int, ptr %22, i32 0, i32 0
  %24 = load i16, ptr %23, align 8, !tbaa !15
  %25 = zext i16 %24 to i32
  %26 = icmp slt i32 %21, %25
  br i1 %26, label %27, label %28

27:                                               ; preds = %17
  store i32 -1, ptr %5, align 4, !tbaa !8
  br label %73

28:                                               ; preds = %17
  call void @llvm.lifetime.start.p0(i64 4, ptr %6) #8
  %29 = load ptr, ptr %3, align 8, !tbaa !3
  %30 = getelementptr inbounds nuw %struct.sp_int, ptr %29, i32 0, i32 0
  %31 = load i16, ptr %30, align 8, !tbaa !15
  %32 = zext i16 %31 to i32
  %33 = sub nsw i32 %32, 1
  store i32 %33, ptr %6, align 4, !tbaa !8
  br label %34

34:                                               ; preds = %69, %28
  %35 = load i32, ptr %6, align 4, !tbaa !8
  %36 = icmp sge i32 %35, 0
  br i1 %36, label %37, label %72

37:                                               ; preds = %34
  %38 = load ptr, ptr %3, align 8, !tbaa !3
  %39 = getelementptr inbounds nuw %struct.sp_int, ptr %38, i32 0, i32 2
  %40 = load i32, ptr %6, align 4, !tbaa !8
  %41 = sext i32 %40 to i64
  %42 = getelementptr inbounds [129 x i64], ptr %39, i64 0, i64 %41
  %43 = load i64, ptr %42, align 8, !tbaa !16
  %44 = load ptr, ptr %4, align 8, !tbaa !3
  %45 = getelementptr inbounds nuw %struct.sp_int, ptr %44, i32 0, i32 2
  %46 = load i32, ptr %6, align 4, !tbaa !8
  %47 = sext i32 %46 to i64
  %48 = getelementptr inbounds [129 x i64], ptr %45, i64 0, i64 %47
  %49 = load i64, ptr %48, align 8, !tbaa !16
  %50 = icmp ugt i64 %43, %49
  br i1 %50, label %51, label %52

51:                                               ; preds = %37
  store i32 1, ptr %5, align 4, !tbaa !8
  br label %72

52:                                               ; preds = %37
  %53 = load ptr, ptr %3, align 8, !tbaa !3
  %54 = getelementptr inbounds nuw %struct.sp_int, ptr %53, i32 0, i32 2
  %55 = load i32, ptr %6, align 4, !tbaa !8
  %56 = sext i32 %55 to i64
  %57 = getelementptr inbounds [129 x i64], ptr %54, i64 0, i64 %56
  %58 = load i64, ptr %57, align 8, !tbaa !16
  %59 = load ptr, ptr %4, align 8, !tbaa !3
  %60 = getelementptr inbounds nuw %struct.sp_int, ptr %59, i32 0, i32 2
  %61 = load i32, ptr %6, align 4, !tbaa !8
  %62 = sext i32 %61 to i64
  %63 = getelementptr inbounds [129 x i64], ptr %60, i64 0, i64 %62
  %64 = load i64, ptr %63, align 8, !tbaa !16
  %65 = icmp ult i64 %58, %64
  br i1 %65, label %66, label %67

66:                                               ; preds = %52
  store i32 -1, ptr %5, align 4, !tbaa !8
  br label %72

67:                                               ; preds = %52
  br label %68

68:                                               ; preds = %67
  br label %69

69:                                               ; preds = %68
  %70 = load i32, ptr %6, align 4, !tbaa !8
  %71 = add nsw i32 %70, -1
  store i32 %71, ptr %6, align 4, !tbaa !8
  br label %34, !llvm.loop !36

72:                                               ; preds = %66, %51, %34
  call void @llvm.lifetime.end.p0(i64 4, ptr %6) #8
  br label %73

73:                                               ; preds = %72, %27
  br label %74

74:                                               ; preds = %73, %16
  %75 = load i32, ptr %5, align 4, !tbaa !8
  call void @llvm.lifetime.end.p0(i64 4, ptr %5) #8
  ret i32 %75
}

; Function Attrs: nounwind uwtable
define i32 @sp_cmp_mag(ptr noundef %0, ptr noundef %1) #0 {
  %3 = alloca ptr, align 8
  %4 = alloca ptr, align 8
  %5 = alloca i32, align 4
  store ptr %0, ptr %3, align 8, !tbaa !3
  store ptr %1, ptr %4, align 8, !tbaa !3
  call void @llvm.lifetime.start.p0(i64 4, ptr %5) #8
  %6 = load ptr, ptr %3, align 8, !tbaa !3
  %7 = load ptr, ptr %4, align 8, !tbaa !3
  %8 = icmp eq ptr %6, %7
  br i1 %8, label %9, label %10

9:                                                ; preds = %2
  store i32 0, ptr %5, align 4, !tbaa !8
  br label %24

10:                                               ; preds = %2
  %11 = load ptr, ptr %3, align 8, !tbaa !3
  %12 = icmp eq ptr %11, null
  br i1 %12, label %13, label %14

13:                                               ; preds = %10
  store i32 -1, ptr %5, align 4, !tbaa !8
  br label %23

14:                                               ; preds = %10
  %15 = load ptr, ptr %4, align 8, !tbaa !3
  %16 = icmp eq ptr %15, null
  br i1 %16, label %17, label %18

17:                                               ; preds = %14
  store i32 1, ptr %5, align 4, !tbaa !8
  br label %22

18:                                               ; preds = %14
  %19 = load ptr, ptr %3, align 8, !tbaa !3
  %20 = load ptr, ptr %4, align 8, !tbaa !3
  %21 = call i32 @_sp_cmp_abs(ptr noundef %19, ptr noundef %20)
  store i32 %21, ptr %5, align 4, !tbaa !8
  br label %22

22:                                               ; preds = %18, %17
  br label %23

23:                                               ; preds = %22, %13
  br label %24

24:                                               ; preds = %23, %9
  %25 = load i32, ptr %5, align 4, !tbaa !8
  call void @llvm.lifetime.end.p0(i64 4, ptr %5) #8
  ret i32 %25
}